; Function Attrs: mustprogress nounwind willreturn uwtable
define internal fastcc void @Hsh_VecManStop(ptr noundef captures(none) %0) unnamed_addr #2 {
  %2 = load ptr, ptr %0, align 8
  %3 = getelementptr inbounds nuw i8, ptr %2, i64 8
  %4 = load ptr, ptr %3, align 8
  %.not.i = icmp eq ptr %4, null
  br i1 %.not.i, label %Vec_IntFree.exit, label %5

5:                                                ; preds = %1
  tail call void @free(ptr noundef nonnull %4) #27
  br label %Vec_IntFree.exit

Vec_IntFree.exit:                                 ; preds = %1, %5
  tail call void @free(ptr noundef nonnull %2) #27
  %6 = getelementptr inbounds nuw i8, ptr %0, i64 8
  %7 = load ptr, ptr %6, align 8
  %8 = getelementptr inbounds nuw i8, ptr %7, i64 8
  %9 = load ptr, ptr %8, align 8
  %.not.i5 = icmp eq ptr %9, null
  br i1 %.not.i5, label %Vec_IntFree.exit6, label %10

10:                                               ; preds = %Vec_IntFree.exit
  tail call void @free(ptr noundef nonnull %9) #27
  br label %Vec_IntFree.exit6

Vec_IntFree.exit6:                                ; preds = %Vec_IntFree.exit, %10
  tail call void @free(ptr noundef nonnull %7) #27
  %11 = getelementptr inbounds nuw i8, ptr %0, i64 16
  %12 = load ptr, ptr %11, align 8
  %13 = getelementptr inbounds nuw i8, ptr %12, i64 8
  %14 = load ptr, ptr %13, align 8
  %.not.i7 = icmp eq ptr %14, null
  br i1 %.not.i7, label %Vec_IntFree.exit8, label %15

15:                                               ; preds = %Vec_IntFree.exit6
  tail call void @free(ptr noundef nonnull %14) #27
  br label %Vec_IntFree.exit8

Vec_IntFree.exit8:                                ; preds = %Vec_IntFree.exit6, %15
  tail call void @free(ptr noundef nonnull %12) #27
  tail call void @free(ptr noundef nonnull %0) #27
  ret void
}